target datalayout = "e-m:e-p270:32:32-p271:32:32-p272:64:64-i64:64-i128:128-f80:128-n8:16:32:64-S128"
target triple = "x86_64-pc-linux-gnu"

; Function Attrs: nounwind uwtable
define internal zeroext i1 @CommitTsPagePrecedes(i64 noundef %0, i64 noundef %1) #0 {
  %3 = alloca i64, align 8
  %4 = alloca i64, align 8
  %5 = alloca i32, align 4
  %6 = alloca i32, align 4
  store i64 %0, ptr %3, align 8
  store i64 %1, ptr %4, align 8
  call void @llvm.lifetime.start.p0(i64 4, ptr %5) #7
  call void @llvm.lifetime.start.p0(i64 4, ptr %6) #7
  %7 = load i64, ptr %3, align 8
  %8 = trunc i64 %7 to i32
  %9 = zext i32 %8 to i64
  %10 = mul i64 %9, 819
  %11 = trunc i64 %10 to i32
  store i32 %11, ptr %5, align 4
  %12 = load i32, ptr %5, align 4
  %13 = add i32 %12, 4
  store i32 %13, ptr %5, align 4
  %14 = load i64, ptr %4, align 8
  %15 = trunc i64 %14 to i32
  %16 = zext i32 %15 to i64
  %17 = mul i64 %16, 819
  %18 = trunc i64 %17 to i32
  store i32 %18, ptr %6, align 4
  %19 = load i32, ptr %6, align 4
  %20 = add i32 %19, 4
  store i32 %20, ptr %6, align 4
  %21 = load i32, ptr %5, align 4
  %22 = load i32, ptr %6, align 4
  %23 = call zeroext i1 @TransactionIdPrecedes(i32 noundef %21, i32 noundef %22)
  br i1 %23, label %24, label %32

24:                                               ; preds = %2
  %25 = load i32, ptr %5, align 4
  %26 = load i32, ptr %6, align 4
  %27 = zext i32 %26 to i64
  %28 = add i64 %27, 819
  %29 = sub i64 %28, 1
  %30 = trunc i64 %29 to i32
  %31 = call zeroext i1 @TransactionIdPrecedes(i32 noundef %25, i32 noundef %30)
  br label %32

32:                                               ; preds = %24, %2
  %33 = phi i1 [ false, %2 ], [ %31, %24 ]
  call void @llvm.lifetime.end.p0(i64 4, ptr %6) #7
  call void @llvm.lifetime.end.p0(i64 4, ptr %5) #7
  ret i1 %33
}